target datalayout = "e-m:e-p270:32:32-p271:32:32-p272:64:64-i64:64-i128:128-f80:128-n8:16:32:64-S128"
target triple = "x86_64-pc-linux-gnu"

@.str = private unnamed_addr constant [4 x i8] c"%ld\00", align 1

; Function Attrs: nounwind uwtable
define i32 @av_dict_set_int(ptr noundef %0, ptr noundef %1, i64 noundef %2, i32 noundef %3) #0 {
  %5 = alloca ptr, align 8
  %6 = alloca ptr, align 8
  %7 = alloca i64, align 8
  %8 = alloca i32, align 4
  %9 = alloca [22 x i8], align 16
  store ptr %0, ptr %5, align 8, !tbaa !25
  store ptr %1, ptr %6, align 8, !tbaa !16
  store i64 %2, ptr %7, align 8, !tbaa !30
  store i32 %3, ptr %8, align 4, !tbaa !14
  call void @llvm.lifetime.start.p0(i64 22, ptr %9) #7
  %10 = getelementptr inbounds [22 x i8], ptr %9, i64 0, i64 0
  %11 = load i64, ptr %7, align 8, !tbaa !30
  %12 = call i32 (ptr, i64, ptr, ...) @snprintf(ptr noundef %10, i64 noundef 22, ptr noundef @.str, i64 noundef %11) #7
  %13 = load i32, ptr %8, align 4, !tbaa !14
  %14 = and i32 %13, -9
  store i32 %14, ptr %8, align 4, !tbaa !14
  %15 = load ptr, ptr %5, align 8, !tbaa !25
  %16 = load ptr, ptr %6, align 8, !tbaa !16
  %17 = getelementptr inbounds [22 x i8], ptr %9, i64 0, i64 0
  %18 = load i32, ptr %8, align 4, !tbaa !14
  %19 = call i32 @av_dict_set(ptr noundef %15, ptr noundef %16, ptr noundef %17, i32 noundef %18)
  call void @llvm.lifetime.end.p0(i64 22, ptr %9) #7
  ret i32 %19
}