; Function Attrs: nounwind uwtable
define range(i32 -22, 1) i32 @av_dict_set_int(ptr noundef %0, ptr noundef %1, i64 noundef %2, i32 noundef %3) local_unnamed_addr #3 {
  %5 = alloca [22 x i8], align 16
  call void @llvm.lifetime.start.p0(i64 22, ptr nonnull %5) #8
  %6 = call i32 (ptr, i64, ptr, ...) @snprintf(ptr noundef nonnull dereferenceable(1) %5, i64 noundef 22, ptr noundef nonnull @.str, i64 noundef %2) #8
  %7 = and i32 %3, -9
  %8 = call i32 @av_dict_set(ptr noundef %0, ptr noundef %1, ptr noundef nonnull %5, i32 noundef %7)
  call void @llvm.lifetime.end.p0(i64 22, ptr nonnull %5) #8
  ret i32 %8
}